; Function Attrs: mustprogress nofree norecurse nosync nounwind willreturn memory(write, argmem: readwrite, inaccessiblemem: none) uwtable
define void @_ZN6marisa5Agent9set_queryEm(ptr nocapture noundef nonnull align 8 dereferenceable(48) %0, i64 noundef %1) local_unnamed_addr #6 align 2 {
  %3 = getelementptr inbounds i8, ptr %0, i64 40
  %4 = load ptr, ptr %3, align 8
  %.not = icmp eq ptr %4, null
  br i1 %.not, label %7, label %5

5:                                                ; preds = %2
  %6 = getelementptr inbounds i8, ptr %4, i64 108
  store i32 0, ptr %6, align 4
  br label %7

7:                                                ; preds = %5, %2
  %8 = getelementptr inbounds i8, ptr %0, i64 16
  store i64 %1, ptr %8, align 8
  ret void
}